target datalayout = "e-m:e-p270:32:32-p271:32:32-p272:64:64-i64:64-i128:128-f80:128-n8:16:32:64-S128"
target triple = "x86_64-unknown-linux-gnu"

%"struct.facebook::velox::connector::DataSink::Stats" = type { i64, i32, %"struct.facebook::velox::common::SpillStats" }
%"struct.facebook::velox::common::SpillStats" = type { i64, i64, i64, i64, i32, i64, i64, i64, i64, i64, i64, i64, i64 }

; Function Attrs: mustprogress nounwind uwtable
define linkonce_odr noundef zeroext i1 @_ZNK8facebook5velox6common10SpillStats5emptyEv(ptr noundef nonnull align 8 dereferenceable(104) %this) #1 comdat align 2 {
entry:
  %this.addr = alloca ptr, align 8
  store ptr %this, ptr %this.addr, align 8
  %this1 = load ptr, ptr %this.addr, align 8
  %spilledBytes = getelementptr inbounds %"struct.facebook::velox::common::SpillStats", ptr %this1, i32 0, i32 2
  %0 = load i64, ptr %spilledBytes, align 8
  %cmp = icmp eq i64 %0, 0
  ret i1 %cmp
}

; Function Attrs: mustprogress uwtable
define noundef zeroext i1 @_ZNK8facebook5velox9connector8DataSink5Stats5emptyEv(ptr noundef nonnull align 8 dereferenceable(120) %this) #0 align 2 {
entry:
  %this.addr = alloca ptr, align 8
  store ptr %this, ptr %this.addr, align 8
  %this1 = load ptr, ptr %this.addr, align 8
  %numWrittenBytes = getelementptr inbounds %"struct.facebook::velox::connector::DataSink::Stats", ptr %this1, i32 0, i32 0
  %0 = load i64, ptr %numWrittenBytes, align 8
  %cmp = icmp eq i64 %0, 0
  br i1 %cmp, label %land.lhs.true, label %land.end

land.lhs.true:                                    ; preds = %entry
  %numWrittenFiles = getelementptr inbounds %"struct.facebook::velox::connector::DataSink::Stats", ptr %this1, i32 0, i32 1
  %1 = load i32, ptr %numWrittenFiles, align 8
  %cmp2 = icmp eq i32 %1, 0
  br i1 %cmp2, label %land.rhs, label %land.end

land.rhs:                                         ; preds = %land.lhs.true
  %spillStats = getelementptr inbounds %"struct.facebook::velox::connector::DataSink::Stats", ptr %this1, i32 0, i32 2
  %call = call noundef zeroext i1 @_ZNK8facebook5velox6common10SpillStats5emptyEv(ptr noundef nonnull align 8 dereferenceable(104) %spillStats)
  br label %land.end

land.end:                                         ; preds = %land.rhs, %land.lhs.true, %entry
  %2 = phi i1 [ false, %land.lhs.true ], [ false, %entry ], [ %call, %land.rhs ]
  ret i1 %2
}