; Function Attrs: mustprogress nofree norecurse nosync nounwind willreturn memory(argmem: read) uwtable
define noundef zeroext i1 @_ZNK8facebook5velox9connector8DataSink5Stats5emptyEv(ptr nocapture noundef nonnull readonly align 8 dereferenceable(120) %this) local_unnamed_addr #0 align 2 {
entry:
  %0 = load i64, ptr %this, align 8
  %cmp = icmp eq i64 %0, 0
  %numWrittenFiles = getelementptr inbounds i8, ptr %this, i64 8
  %1 = load i32, ptr %numWrittenFiles, align 8
  %cmp2 = icmp eq i32 %1, 0
  %or.cond = select i1 %cmp, i1 %cmp2, i1 false
  br i1 %or.cond, label %land.rhs, label %land.end

land.rhs:                                         ; preds = %entry
  %spilledBytes.i = getelementptr inbounds i8, ptr %this, i64 32
  %2 = load i64, ptr %spilledBytes.i, align 8
  %cmp.i = icmp eq i64 %2, 0
  br label %land.end

land.end:                                         ; preds = %land.rhs, %entry
  %3 = phi i1 [ false, %entry ], [ %cmp.i, %land.rhs ]
  ret i1 %3
}